target datalayout = "e-m:e-p270:32:32-p271:32:32-p272:64:64-i64:64-i128:128-f80:128-n8:16:32:64-S128"
target triple = "x86_64-pc-linux-gnu"

%struct.ident_t = type { i32, i32, i32, i32, ptr }

@1 = private unnamed_addr constant %struct.ident_t { i32 0, i32 514, i32 0, i32 22, ptr @0 }, align 8

; Function Attrs: alwaysinline norecurse nounwind ssp uwtable
define internal void @_ZN6open3d4core15ParallelForCPU_IZNS_1t8geometry6kernel10voxel_grid22ExtractTriangleMeshCPUIfffEEvRKNS0_6TensorES9_S9_S9_S9_RKNS3_9TensorMapERS7_SD_SD_SD_iffRiEUliE1_EEvRKNS0_6DeviceElRKT_.omp_outlined(ptr noalias noundef %0, ptr noalias noundef %1, ptr noundef nonnull align 8 dereferenceable(8) %2, ptr noundef nonnull align 8 dereferenceable(312) %3) #24 personality ptr @__gxx_personality_v0 {
  %5 = alloca ptr, align 8
  %6 = alloca ptr, align 8
  %7 = alloca ptr, align 8
  %8 = alloca ptr, align 8
  %9 = alloca ptr, align 8
  %10 = alloca i64, align 8
  %11 = alloca i64, align 8
  %12 = alloca i64, align 8
  %13 = alloca i64, align 8
  %14 = alloca i64, align 8
  %15 = alloca i64, align 8
  %16 = alloca i64, align 8
  %17 = alloca i32, align 4
  %18 = alloca i64, align 8
  store ptr %0, ptr %5, align 8, !tbaa !15
  store ptr %1, ptr %6, align 8, !tbaa !15
  store ptr %2, ptr %7, align 8, !tbaa !19
  store ptr %3, ptr %8, align 8, !tbaa !32
  %19 = load ptr, ptr %7, align 8, !tbaa !19
  %20 = load ptr, ptr %8, align 8, !tbaa !32
  store ptr %20, ptr %9, align 8
  call void @llvm.lifetime.start.p0(i64 8, ptr %10) #25
  call void @llvm.lifetime.start.p0(i64 8, ptr %11) #25
  %21 = load i64, ptr %19, align 8, !tbaa !21
  store i64 %21, ptr %11, align 8, !tbaa !21
  call void @llvm.lifetime.start.p0(i64 8, ptr %12) #25
  %22 = load i64, ptr %11, align 8, !tbaa !21
  %23 = sub nsw i64 %22, 0
  %24 = sdiv i64 %23, 1
  %25 = sub nsw i64 %24, 1
  store i64 %25, ptr %12, align 8, !tbaa !21
  call void @llvm.lifetime.start.p0(i64 8, ptr %13) #25
  store i64 0, ptr %13, align 8, !tbaa !21
  call void @llvm.lifetime.end.p0(i64 8, ptr %13) #25
  %26 = load i64, ptr %11, align 8, !tbaa !21
  %27 = icmp slt i64 0, %26
  br i1 %27, label %28, label %63

28:                                               ; preds = %4
  call void @llvm.lifetime.start.p0(i64 8, ptr %14) #25
  store i64 0, ptr %14, align 8, !tbaa !21
  call void @llvm.lifetime.start.p0(i64 8, ptr %15) #25
  %29 = load i64, ptr %12, align 8, !tbaa !21
  store i64 %29, ptr %15, align 8, !tbaa !21
  call void @llvm.lifetime.start.p0(i64 8, ptr %16) #25
  store i64 1, ptr %16, align 8, !tbaa !21
  call void @llvm.lifetime.start.p0(i64 4, ptr %17) #25
  store i32 0, ptr %17, align 4, !tbaa !9
  call void @llvm.lifetime.start.p0(i64 8, ptr %18) #25
  %30 = load ptr, ptr %5, align 8
  %31 = load i32, ptr %30, align 4, !tbaa !9
  call void @__kmpc_for_static_init_8(ptr @1, i32 %31, i32 34, ptr %17, ptr %14, ptr %15, ptr %16, i64 1, i64 1)
  %32 = load i64, ptr %15, align 8, !tbaa !21
  %33 = load i64, ptr %12, align 8, !tbaa !21
  %34 = icmp sgt i64 %32, %33
  br i1 %34, label %35, label %37

35:                                               ; preds = %28
  %36 = load i64, ptr %12, align 8, !tbaa !21
  br label %39

37:                                               ; preds = %28
  %38 = load i64, ptr %15, align 8, !tbaa !21
  br label %39

39:                                               ; preds = %37, %35
  %40 = phi i64 [ %36, %35 ], [ %38, %37 ]
  store i64 %40, ptr %15, align 8, !tbaa !21
  %41 = load i64, ptr %14, align 8, !tbaa !21
  store i64 %41, ptr %10, align 8, !tbaa !21
  br label %42

42:                                               ; preds = %56, %39
  %43 = load i64, ptr %10, align 8, !tbaa !21
  %44 = load i64, ptr %15, align 8, !tbaa !21
  %45 = icmp sle i64 %43, %44
  br i1 %45, label %47, label %46

46:                                               ; preds = %42
  br label %59

47:                                               ; preds = %42
  %48 = load i64, ptr %10, align 8, !tbaa !21
  %49 = mul nsw i64 %48, 1
  %50 = add nsw i64 0, %49
  store i64 %50, ptr %18, align 8, !tbaa !21
  %51 = load ptr, ptr %9, align 8, !tbaa !32
  %52 = load i64, ptr %18, align 8, !tbaa !21
  %53 = trunc i64 %52 to i32
  invoke void @_ZZN6open3d1t8geometry6kernel10voxel_grid22ExtractTriangleMeshCPUIfffEEvRKNS_4core6TensorES8_S8_S8_S8_RKNS1_9TensorMapERS6_SC_SC_SC_iffRiENKUliE1_clEi(ptr noundef nonnull align 8 dereferenceable(312) %51, i32 noundef %53)
          to label %54 unwind label %64

54:                                               ; preds = %47
  br label %55

55:                                               ; preds = %54
  br label %56

56:                                               ; preds = %55
  %57 = load i64, ptr %10, align 8, !tbaa !21
  %58 = add nsw i64 %57, 1
  store i64 %58, ptr %10, align 8, !tbaa !21
  br label %42

59:                                               ; preds = %46
  br label %60

60:                                               ; preds = %59
  %61 = load ptr, ptr %5, align 8
  %62 = load i32, ptr %61, align 4, !tbaa !9
  call void @__kmpc_for_static_fini(ptr @1, i32 %62)
  call void @llvm.lifetime.end.p0(i64 8, ptr %18) #25
  call void @llvm.lifetime.end.p0(i64 4, ptr %17) #25
  call void @llvm.lifetime.end.p0(i64 8, ptr %16) #25
  call void @llvm.lifetime.end.p0(i64 8, ptr %15) #25
  call void @llvm.lifetime.end.p0(i64 8, ptr %14) #25
  br label %63

63:                                               ; preds = %60, %4
  call void @llvm.lifetime.end.p0(i64 8, ptr %12) #25
  call void @llvm.lifetime.end.p0(i64 8, ptr %11) #25
  call void @llvm.lifetime.end.p0(i64 8, ptr %10) #25
  ret void

64:                                               ; preds = %47
  %65 = landingpad { ptr, i32 }
          catch ptr null
  %66 = extractvalue { ptr, i32 } %65, 0
  call void @__clang_call_terminate(ptr %66) #32
  unreachable
}