; Function Attrs: alwaysinline norecurse nounwind ssp uwtable
define internal void @_ZN6open3d4core15ParallelForCPU_IZNS_1t8geometry6kernel10voxel_grid22ExtractTriangleMeshCPUIfffEEvRKNS0_6TensorES9_S9_S9_S9_RKNS3_9TensorMapERS7_SD_SD_SD_iffRiEUliE1_EEvRKNS0_6DeviceElRKT_.omp_outlined(ptr noalias noundef readonly captures(none) %0, ptr noalias readnone captures(none) %1, ptr noundef nonnull readonly align 8 captures(none) dereferenceable(8) %2, ptr noundef nonnull align 8 dereferenceable(312) %3) #24 personality ptr @__gxx_personality_v0 {
  %5 = alloca i64, align 8
  %6 = alloca i64, align 8
  %7 = alloca i64, align 8
  %8 = alloca i32, align 4
  %9 = load i64, ptr %2, align 8, !tbaa !12
  %10 = icmp sgt i64 %9, 0
  br i1 %10, label %11, label %21

11:                                               ; preds = %4
  %12 = add nsw i64 %9, -1
  call void @llvm.lifetime.start.p0(i64 8, ptr nonnull %5) #25
  store i64 0, ptr %5, align 8, !tbaa !12
  call void @llvm.lifetime.start.p0(i64 8, ptr nonnull %6) #25
  store i64 %12, ptr %6, align 8, !tbaa !12
  call void @llvm.lifetime.start.p0(i64 8, ptr nonnull %7) #25
  store i64 1, ptr %7, align 8, !tbaa !12
  call void @llvm.lifetime.start.p0(i64 4, ptr nonnull %8) #25
  store i32 0, ptr %8, align 4, !tbaa !19
  %13 = load i32, ptr %0, align 4, !tbaa !19
  call void @__kmpc_for_static_init_8(ptr nonnull @1, i32 %13, i32 34, ptr nonnull %8, ptr nonnull %5, ptr nonnull %6, ptr nonnull %7, i64 1, i64 1)
  %14 = load i64, ptr %6, align 8, !tbaa !12
  %15 = call i64 @llvm.smin.i64(i64 %14, i64 %12)
  store i64 %15, ptr %6, align 8, !tbaa !12
  %16 = load i64, ptr %5, align 8, !tbaa !12
  %.not13 = icmp sgt i64 %16, %15
  br i1 %.not13, label %._crit_edge, label %.lr.ph

.lr.ph:                                           ; preds = %11, %18
  %.014 = phi i64 [ %19, %18 ], [ %16, %11 ]
  %17 = trunc i64 %.014 to i32
  invoke void @_ZZN6open3d1t8geometry6kernel10voxel_grid22ExtractTriangleMeshCPUIfffEEvRKNS_4core6TensorES8_S8_S8_S8_RKNS1_9TensorMapERS6_SC_SC_SC_iffRiENKUliE1_clEi(ptr noundef nonnull align 8 dereferenceable(312) %3, i32 noundef %17)
          to label %18 unwind label %22

18:                                               ; preds = %.lr.ph
  %19 = add nsw i64 %.014, 1
  %20 = load i64, ptr %6, align 8, !tbaa !12
  %.not.not = icmp slt i64 %.014, %20
  br i1 %.not.not, label %.lr.ph, label %._crit_edge

._crit_edge:                                      ; preds = %18, %11
  call void @__kmpc_for_static_fini(ptr nonnull @1, i32 %13)
  call void @llvm.lifetime.end.p0(i64 4, ptr nonnull %8) #25
  call void @llvm.lifetime.end.p0(i64 8, ptr nonnull %7) #25
  call void @llvm.lifetime.end.p0(i64 8, ptr nonnull %6) #25
  call void @llvm.lifetime.end.p0(i64 8, ptr nonnull %5) #25
  br label %21

21:                                               ; preds = %._crit_edge, %4
  ret void

22:                                               ; preds = %.lr.ph
  %23 = landingpad { ptr, i32 }
          catch ptr null
  %24 = extractvalue { ptr, i32 } %23, 0
  call void @__clang_call_terminate(ptr %24) #38
  unreachable
}